(dp0
S'loss'
p1
VMean:0
p2
sS'optimizer'
p3
VAdam
p4
sS'keep_prob'
p5
VPlaceholder_2:0
p6
sS'prediction'
p7
VArgMax:0
p8
sS'y'
p9
VPlaceholder_1:0
p10
sS'x'
p11
VPlaceholder:0
p12
sS'accuracy'
p13
VMean_1:0
p14
s.